target datalayout = "e-m:e-p270:32:32-p271:32:32-p272:64:64-i64:64-i128:128-f80:128-n8:16:32:64-S128"
target triple = "x86_64-pc-linux-gnu"

%struct._object = type { %union.anon, ptr }
%union.anon = type { i64 }

@_Py_NoneStruct = external global %struct._object, align 8
@PyExc_RuntimeError = external global ptr, align 8
@.str.41 = private unnamed_addr constant [5 x i8] c"IO|i\00", align 1
@.str.42 = private unnamed_addr constant [28 x i8] c"PyTraceMalloc_Untrack error\00", align 1

; Function Attrs: nounwind uwtable
define internal ptr @tracemalloc_untrack(ptr noundef %0, ptr noundef %1) #0 {
  %3 = alloca ptr, align 8
  %4 = alloca ptr, align 8
  %5 = alloca ptr, align 8
  %6 = alloca i32, align 4
  %7 = alloca ptr, align 8
  %8 = alloca i32, align 4
  %9 = alloca i32, align 4
  %10 = alloca ptr, align 8
  %11 = alloca i32, align 4
  %12 = alloca ptr, align 8
  store ptr %0, ptr %4, align 8, !tbaa !3
  store ptr %1, ptr %5, align 8, !tbaa !3
  call void @llvm.lifetime.start.p0(i64 4, ptr %6) #6
  call void @llvm.lifetime.start.p0(i64 8, ptr %7) #6
  call void @llvm.lifetime.start.p0(i64 4, ptr %8) #6
  store i32 0, ptr %8, align 4, !tbaa !21
  %13 = load ptr, ptr %5, align 8, !tbaa !3
  %14 = call i32 (ptr, ptr, ...) @PyArg_ParseTuple(ptr noundef %13, ptr noundef @.str.41, ptr noundef %6, ptr noundef %7, ptr noundef %8)
  %15 = icmp ne i32 %14, 0
  br i1 %15, label %17, label %16

16:                                               ; preds = %2
  store ptr null, ptr %3, align 8
  store i32 1, ptr %9, align 4
  br label %46

17:                                               ; preds = %2
  call void @llvm.lifetime.start.p0(i64 8, ptr %10) #6
  %18 = load ptr, ptr %7, align 8, !tbaa !3
  %19 = call ptr @PyLong_AsVoidPtr(ptr noundef %18)
  store ptr %19, ptr %10, align 8, !tbaa !18
  %20 = call ptr @PyErr_Occurred()
  %21 = icmp ne ptr %20, null
  br i1 %21, label %22, label %23

22:                                               ; preds = %17
  store ptr null, ptr %3, align 8
  store i32 1, ptr %9, align 4
  br label %45

23:                                               ; preds = %17
  call void @llvm.lifetime.start.p0(i64 4, ptr %11) #6
  %24 = load i32, ptr %8, align 4, !tbaa !21
  %25 = icmp ne i32 %24, 0
  br i1 %25, label %26, label %33

26:                                               ; preds = %23
  call void @llvm.lifetime.start.p0(i64 8, ptr %12) #6
  %27 = call ptr @PyEval_SaveThread()
  store ptr %27, ptr %12, align 8, !tbaa !11
  %28 = load i32, ptr %6, align 4, !tbaa !21
  %29 = load ptr, ptr %10, align 8, !tbaa !18
  %30 = ptrtoint ptr %29 to i64
  %31 = call i32 @PyTraceMalloc_Untrack(i32 noundef %28, i64 noundef %30)
  store i32 %31, ptr %11, align 4, !tbaa !21
  %32 = load ptr, ptr %12, align 8, !tbaa !11
  call void @PyEval_RestoreThread(ptr noundef %32)
  call void @llvm.lifetime.end.p0(i64 8, ptr %12) #6
  br label %38

33:                                               ; preds = %23
  %34 = load i32, ptr %6, align 4, !tbaa !21
  %35 = load ptr, ptr %10, align 8, !tbaa !18
  %36 = ptrtoint ptr %35 to i64
  %37 = call i32 @PyTraceMalloc_Untrack(i32 noundef %34, i64 noundef %36)
  store i32 %37, ptr %11, align 4, !tbaa !21
  br label %38

38:                                               ; preds = %33, %26
  %39 = load i32, ptr %11, align 4, !tbaa !21
  %40 = icmp slt i32 %39, 0
  br i1 %40, label %41, label %43

41:                                               ; preds = %38
  %42 = load ptr, ptr @PyExc_RuntimeError, align 8, !tbaa !3
  call void @PyErr_SetString(ptr noundef %42, ptr noundef @.str.42)
  store ptr null, ptr %3, align 8
  store i32 1, ptr %9, align 4
  br label %44

43:                                               ; preds = %38
  store ptr @_Py_NoneStruct, ptr %3, align 8
  store i32 1, ptr %9, align 4
  br label %44

44:                                               ; preds = %43, %41
  call void @llvm.lifetime.end.p0(i64 4, ptr %11) #6
  br label %45

45:                                               ; preds = %44, %22
  call void @llvm.lifetime.end.p0(i64 8, ptr %10) #6
  br label %46

46:                                               ; preds = %45, %16
  call void @llvm.lifetime.end.p0(i64 4, ptr %8) #6
  call void @llvm.lifetime.end.p0(i64 8, ptr %7) #6
  call void @llvm.lifetime.end.p0(i64 4, ptr %6) #6
  %47 = load ptr, ptr %3, align 8
  ret ptr %47
}