; Function Attrs: nounwind uwtable
define internal noundef ptr @tracemalloc_untrack(ptr readnone captures(none) %0, ptr noundef %1) #0 {
  %3 = alloca i32, align 4
  %4 = alloca ptr, align 8
  %5 = alloca i32, align 4
  call void @llvm.lifetime.start.p0(i64 4, ptr nonnull %3) #4
  call void @llvm.lifetime.start.p0(i64 8, ptr nonnull %4) #4
  call void @llvm.lifetime.start.p0(i64 4, ptr nonnull %5) #4
  store i32 0, ptr %5, align 4, !tbaa !22
  %6 = call i32 (ptr, ptr, ...) @PyArg_ParseTuple(ptr noundef %1, ptr noundef nonnull @.str.41, ptr noundef nonnull %3, ptr noundef nonnull %4, ptr noundef nonnull %5) #4
  %.not = icmp eq i32 %6, 0
  br i1 %.not, label %26, label %7

7:                                                ; preds = %2
  %8 = load ptr, ptr %4, align 8, !tbaa !20
  %9 = call ptr @PyLong_AsVoidPtr(ptr noundef %8) #4
  %10 = call ptr @PyErr_Occurred() #4
  %.not6 = icmp eq ptr %10, null
  br i1 %.not6, label %11, label %26

11:                                               ; preds = %7
  %12 = load i32, ptr %5, align 4, !tbaa !22
  %.not7 = icmp eq i32 %12, 0
  br i1 %.not7, label %18, label %13

13:                                               ; preds = %11
  %14 = call ptr @PyEval_SaveThread() #4
  %15 = load i32, ptr %3, align 4, !tbaa !22
  %16 = ptrtoint ptr %9 to i64
  %17 = call i32 @PyTraceMalloc_Untrack(i32 noundef %15, i64 noundef %16) #4
  call void @PyEval_RestoreThread(ptr noundef %14) #4
  br label %22

18:                                               ; preds = %11
  %19 = load i32, ptr %3, align 4, !tbaa !22
  %20 = ptrtoint ptr %9 to i64
  %21 = call i32 @PyTraceMalloc_Untrack(i32 noundef %19, i64 noundef %20) #4
  br label %22

22:                                               ; preds = %18, %13
  %.05 = phi i32 [ %17, %13 ], [ %21, %18 ]
  %23 = icmp slt i32 %.05, 0
  br i1 %23, label %24, label %26

24:                                               ; preds = %22
  %25 = load ptr, ptr @PyExc_RuntimeError, align 8, !tbaa !20
  call void @PyErr_SetString(ptr noundef %25, ptr noundef nonnull @.str.42) #4
  br label %26

26:                                               ; preds = %7, %22, %24, %2
  %.0 = phi ptr [ null, %2 ], [ null, %7 ], [ null, %24 ], [ @_Py_NoneStruct, %22 ]
  call void @llvm.lifetime.end.p0(i64 4, ptr nonnull %5) #4
  call void @llvm.lifetime.end.p0(i64 8, ptr nonnull %4) #4
  call void @llvm.lifetime.end.p0(i64 4, ptr nonnull %3) #4
  ret ptr %.0
}